target datalayout = "e-m:e-p270:32:32-p271:32:32-p272:64:64-i64:64-i128:128-f80:128-n8:16:32:64-S128"
target triple = "x86_64-pc-linux-gnu"

%struct.pcre2_real_general_context_8 = type { %struct.pcre2_memctl }
%struct.pcre2_memctl = type { ptr, ptr, ptr }

; Function Attrs: nounwind uwtable
define void @pcre2_maketables_free_8(ptr noundef %0, ptr noundef %1) #0 {
  %3 = alloca ptr, align 8
  %4 = alloca ptr, align 8
  store ptr %0, ptr %3, align 8
  store ptr %1, ptr %4, align 8
  %5 = load ptr, ptr %3, align 8
  %6 = icmp ne ptr %5, null
  br i1 %6, label %7, label %17

7:                                                ; preds = %2
  %8 = load ptr, ptr %3, align 8
  %9 = getelementptr inbounds %struct.pcre2_real_general_context_8, ptr %8, i32 0, i32 0
  %10 = getelementptr inbounds %struct.pcre2_memctl, ptr %9, i32 0, i32 1
  %11 = load ptr, ptr %10, align 8
  %12 = load ptr, ptr %4, align 8
  %13 = load ptr, ptr %3, align 8
  %14 = getelementptr inbounds %struct.pcre2_real_general_context_8, ptr %13, i32 0, i32 0
  %15 = getelementptr inbounds %struct.pcre2_memctl, ptr %14, i32 0, i32 2
  %16 = load ptr, ptr %15, align 8
  call void %11(ptr noundef %12, ptr noundef %16)
  br label %19

17:                                               ; preds = %2
  %18 = load ptr, ptr %4, align 8
  call void @free(ptr noundef %18) #9
  br label %19

19:                                               ; preds = %17, %7
  ret void
}