; Function Attrs: nounwind uwtable
define void @pcre2_maketables_free_8(ptr noundef readonly %0, ptr noundef %1) local_unnamed_addr #0 {
  %.not = icmp eq ptr %0, null
  br i1 %.not, label %8, label %3

3:                                                ; preds = %2
  %4 = getelementptr inbounds i8, ptr %0, i64 8
  %5 = load ptr, ptr %4, align 8
  %6 = getelementptr inbounds i8, ptr %0, i64 16
  %7 = load ptr, ptr %6, align 8
  tail call void %5(ptr noundef %1, ptr noundef %7) #6
  br label %9

8:                                                ; preds = %2
  tail call void @free(ptr noundef %1) #6
  br label %9

9:                                                ; preds = %8, %3
  ret void
}